target datalayout = "e-m:e-p270:32:32-p271:32:32-p272:64:64-i64:64-i128:128-f80:128-n8:16:32:64-S128"
target triple = "x86_64-pc-linux-gnu"

%"class.llvm::SUnit" = type <{ %union.anon, ptr, ptr, ptr, ptr, %"class.llvm::SmallVector", %"class.llvm::SmallVector", i32, i32, i32, i32, i32, i32, i32, i32, i32, i32, i32, i32, i16, i16, i16, i8, i8 }>
%union.anon = type { ptr }
%"class.llvm::SmallVector" = type { %"class.llvm::SmallVectorImpl", %"struct.llvm::SmallVectorStorage" }
%"class.llvm::SmallVectorImpl" = type { %"class.llvm::SmallVectorTemplateBase" }
%"class.llvm::SmallVectorTemplateBase" = type { %"class.llvm::SmallVectorTemplateCommon" }
%"class.llvm::SmallVectorTemplateCommon" = type { %"class.llvm::SmallVectorBase" }
%"class.llvm::SmallVectorBase" = type { ptr, i32, i32 }
%"struct.llvm::SmallVectorStorage" = type { [64 x i8] }
%"class.llvm::SDep" = type { %"class.llvm::PointerIntPair", %union.anon.5, i32 }
%"class.llvm::PointerIntPair" = type { %"struct.llvm::detail::PunnedPointer" }
%"struct.llvm::detail::PunnedPointer" = type { [8 x i8] }
%union.anon.5 = type { i32 }

; Function Attrs: mustprogress nounwind uwtable
define linkonce_odr hidden noundef ptr @_ZN4llvm21PointerLikeTypeTraitsIPNS_5SUnitEE18getFromVoidPointerEPv(ptr noundef %0) #0 comdat align 2 {
  %2 = alloca ptr, align 8
  store ptr %0, ptr %2, align 8
  %3 = load ptr, ptr %2, align 8
  ret ptr %3
}

; Function Attrs: mustprogress nounwind uwtable
define linkonce_odr hidden noundef i64 @_ZNK4llvm6detail13PunnedPointerIPNS_5SUnitEE5asIntEv(ptr noundef nonnull align 8 dereferenceable(8) %0) #0 comdat align 2 {
  %2 = alloca ptr, align 8
  %3 = alloca i64, align 8
  store ptr %0, ptr %2, align 8
  %4 = load ptr, ptr %2, align 8
  store i64 0, ptr %3, align 8
  %5 = getelementptr inbounds nuw %"struct.llvm::detail::PunnedPointer", ptr %4, i32 0, i32 0
  %6 = getelementptr inbounds [8 x i8], ptr %5, i64 0, i64 0
  call void @llvm.memcpy.p0.p0.i64(ptr align 8 %3, ptr align 8 %6, i64 8, i1 false)
  %7 = load i64, ptr %3, align 8
  ret i64 %7
}

; Function Attrs: mustprogress nounwind uwtable
define linkonce_odr hidden noundef ptr @_ZN4llvm18PointerIntPairInfoIPNS_5SUnitELj2ENS_21PointerLikeTypeTraitsIS2_EEE10getPointerEl(i64 noundef %0) #0 comdat align 2 {
  %2 = alloca i64, align 8
  store i64 %0, ptr %2, align 8
  %3 = load i64, ptr %2, align 8
  %4 = and i64 %3, -8
  %5 = inttoptr i64 %4 to ptr
  %6 = call noundef ptr @_ZN4llvm21PointerLikeTypeTraitsIPNS_5SUnitEE18getFromVoidPointerEPv(ptr noundef %5)
  ret ptr %6
}

; Function Attrs: mustprogress nounwind uwtable
define linkonce_odr hidden noundef i64 @_ZNK4llvm6detail13PunnedPointerIPNS_5SUnitEEcvlEv(ptr noundef nonnull align 8 dereferenceable(8) %0) #0 comdat align 2 {
  %2 = alloca ptr, align 8
  store ptr %0, ptr %2, align 8
  %3 = load ptr, ptr %2, align 8
  %4 = call noundef i64 @_ZNK4llvm6detail13PunnedPointerIPNS_5SUnitEE5asIntEv(ptr noundef nonnull align 8 dereferenceable(8) %3)
  ret i64 %4
}

; Function Attrs: mustprogress nounwind uwtable
define dso_local noundef ptr @_ZN4llvm20LatencyPriorityQueue24getSingleUnscheduledPredEPNS_5SUnitE(ptr noundef nonnull align 8 dereferenceable(80) %0, ptr noundef %1) #0 align 2 {
  %3 = alloca ptr, align 8
  %4 = alloca ptr, align 8
  %5 = alloca ptr, align 8
  %6 = alloca ptr, align 8
  %7 = alloca ptr, align 8
  %8 = alloca ptr, align 8
  %9 = alloca ptr, align 8
  %10 = alloca ptr, align 8
  %11 = alloca ptr, align 8
  store ptr %0, ptr %4, align 8
  store ptr %1, ptr %5, align 8
  store ptr null, ptr %6, align 8
  %12 = load ptr, ptr %5, align 8
  %13 = getelementptr inbounds nuw %"class.llvm::SUnit", ptr %12, i32 0, i32 5
  store ptr %13, ptr %7, align 8
  %14 = load ptr, ptr %7, align 8
  %15 = call noundef ptr @_ZN4llvm25SmallVectorTemplateCommonINS_4SDepEvE5beginEv(ptr noundef nonnull align 8 dereferenceable(16) %14)
  store ptr %15, ptr %8, align 8
  %16 = load ptr, ptr %7, align 8
  %17 = call noundef ptr @_ZN4llvm25SmallVectorTemplateCommonINS_4SDepEvE3endEv(ptr noundef nonnull align 8 dereferenceable(16) %16)
  store ptr %17, ptr %9, align 8
  br label %18

18:                                               ; preds = %43, %2
  %19 = load ptr, ptr %8, align 8
  %20 = load ptr, ptr %9, align 8
  %21 = icmp ne ptr %19, %20
  br i1 %21, label %22, label %46

22:                                               ; preds = %18
  %23 = load ptr, ptr %8, align 8
  store ptr %23, ptr %10, align 8
  %24 = load ptr, ptr %10, align 8
  %25 = call noundef ptr @_ZNK4llvm4SDep8getSUnitEv(ptr noundef nonnull align 8 dereferenceable(16) %24)
  store ptr %25, ptr %11, align 8
  %26 = load ptr, ptr %11, align 8
  %27 = getelementptr inbounds nuw %"class.llvm::SUnit", ptr %26, i32 0, i32 19
  %28 = load i16, ptr %27, align 8
  %29 = lshr i16 %28, 10
  %30 = and i16 %29, 1
  %31 = trunc i16 %30 to i1
  br i1 %31, label %42, label %32

32:                                               ; preds = %22
  %33 = load ptr, ptr %6, align 8
  %34 = icmp ne ptr %33, null
  br i1 %34, label %35, label %40

35:                                               ; preds = %32
  %36 = load ptr, ptr %6, align 8
  %37 = load ptr, ptr %11, align 8
  %38 = icmp ne ptr %36, %37
  br i1 %38, label %39, label %40

39:                                               ; preds = %35
  store ptr null, ptr %3, align 8
  br label %48

40:                                               ; preds = %35, %32
  %41 = load ptr, ptr %11, align 8
  store ptr %41, ptr %6, align 8
  br label %42

42:                                               ; preds = %40, %22
  br label %43

43:                                               ; preds = %42
  %44 = load ptr, ptr %8, align 8
  %45 = getelementptr inbounds %"class.llvm::SDep", ptr %44, i32 1
  store ptr %45, ptr %8, align 8
  br label %18

46:                                               ; preds = %18
  %47 = load ptr, ptr %6, align 8
  store ptr %47, ptr %3, align 8
  br label %48

48:                                               ; preds = %46, %39
  %49 = load ptr, ptr %3, align 8
  ret ptr %49
}

; Function Attrs: mustprogress nounwind uwtable
define linkonce_odr hidden noundef ptr @_ZNK4llvm14PointerIntPairIPNS_5SUnitELj2ENS_4SDep4KindENS_21PointerLikeTypeTraitsIS2_EENS_18PointerIntPairInfoIS2_Lj2ES6_EEE10getPointerEv(ptr noundef nonnull align 8 dereferenceable(8) %0) #0 comdat align 2 {
  %2 = alloca ptr, align 8
  store ptr %0, ptr %2, align 8
  %3 = load ptr, ptr %2, align 8
  %4 = getelementptr inbounds nuw %"class.llvm::PointerIntPair", ptr %3, i32 0, i32 0
  %5 = call noundef i64 @_ZNK4llvm6detail13PunnedPointerIPNS_5SUnitEEcvlEv(ptr noundef nonnull align 8 dereferenceable(8) %4)
  %6 = call noundef ptr @_ZN4llvm18PointerIntPairInfoIPNS_5SUnitELj2ENS_21PointerLikeTypeTraitsIS2_EEE10getPointerEl(i64 noundef %5)
  ret ptr %6
}

; Function Attrs: mustprogress nounwind uwtable
define dso_local void @_ZN4llvm20LatencyPriorityQueue32AdjustPriorityOfUnscheduledPredsEPNS_5SUnitE(ptr noundef nonnull align 8 dereferenceable(80) %0, ptr noundef %1) #0 align 2 {
  %3 = alloca ptr, align 8
  %4 = alloca ptr, align 8
  %5 = alloca ptr, align 8
  store ptr %0, ptr %3, align 8
  store ptr %1, ptr %4, align 8
  %6 = load ptr, ptr %3, align 8
  %7 = load ptr, ptr %4, align 8
  %8 = getelementptr inbounds nuw %"class.llvm::SUnit", ptr %7, i32 0, i32 19
  %9 = load i16, ptr %8, align 8
  %10 = lshr i16 %9, 9
  %11 = and i16 %10, 1
  %12 = trunc i16 %11 to i1
  br i1 %12, label %13, label %14

13:                                               ; preds = %2
  br label %36

14:                                               ; preds = %2
  %15 = load ptr, ptr %4, align 8
  %16 = call noundef ptr @_ZN4llvm20LatencyPriorityQueue24getSingleUnscheduledPredEPNS_5SUnitE(ptr noundef nonnull align 8 dereferenceable(80) %6, ptr noundef %15)
  store ptr %16, ptr %5, align 8
  %17 = load ptr, ptr %5, align 8
  %18 = icmp ne ptr %17, null
  br i1 %18, label %19, label %26

19:                                               ; preds = %14
  %20 = load ptr, ptr %5, align 8
  %21 = getelementptr inbounds nuw %"class.llvm::SUnit", ptr %20, i32 0, i32 19
  %22 = load i16, ptr %21, align 8
  %23 = lshr i16 %22, 9
  %24 = and i16 %23, 1
  %25 = trunc i16 %24 to i1
  br i1 %25, label %27, label %26

26:                                               ; preds = %19, %14
  br label %36

27:                                               ; preds = %19
  %28 = load ptr, ptr %5, align 8
  %29 = load ptr, ptr %6, align 8
  %30 = getelementptr inbounds ptr, ptr %29, i64 13
  %31 = load ptr, ptr %30, align 8
  call void %31(ptr noundef nonnull align 8 dereferenceable(80) %6, ptr noundef %28)
  %32 = load ptr, ptr %5, align 8
  %33 = load ptr, ptr %6, align 8
  %34 = getelementptr inbounds ptr, ptr %33, i64 11
  %35 = load ptr, ptr %34, align 8
  call void %35(ptr noundef nonnull align 8 dereferenceable(80) %6, ptr noundef %32)
  br label %36

36:                                               ; preds = %27, %26, %13
  ret void
}

; Function Attrs: mustprogress nounwind uwtable
define linkonce_odr hidden noundef ptr @_ZNK4llvm4SDep8getSUnitEv(ptr noundef nonnull align 8 dereferenceable(16) %0) #0 comdat align 2 {
  %2 = alloca ptr, align 8
  store ptr %0, ptr %2, align 8
  %3 = load ptr, ptr %2, align 8
  %4 = getelementptr inbounds nuw %"class.llvm::SDep", ptr %3, i32 0, i32 0
  %5 = call noundef ptr @_ZNK4llvm14PointerIntPairIPNS_5SUnitELj2ENS_4SDep4KindENS_21PointerLikeTypeTraitsIS2_EENS_18PointerIntPairInfoIS2_Lj2ES6_EEE10getPointerEv(ptr noundef nonnull align 8 dereferenceable(8) %4)
  ret ptr %5
}

; Function Attrs: mustprogress nounwind uwtable
define linkonce_odr hidden noundef ptr @_ZN4llvm25SmallVectorTemplateCommonINS_4SDepEvE3endEv(ptr noundef nonnull align 8 dereferenceable(16) %0) #0 comdat align 2 {
  %2 = alloca ptr, align 8
  store ptr %0, ptr %2, align 8
  %3 = load ptr, ptr %2, align 8
  %4 = call noundef ptr @_ZN4llvm25SmallVectorTemplateCommonINS_4SDepEvE5beginEv(ptr noundef nonnull align 8 dereferenceable(16) %3)
  %5 = call noundef i64 @_ZNK4llvm15SmallVectorBaseIjE4sizeEv(ptr noundef nonnull align 8 dereferenceable(16) %3)
  %6 = getelementptr inbounds %"class.llvm::SDep", ptr %4, i64 %5
  ret ptr %6
}

; Function Attrs: mustprogress nounwind uwtable
define linkonce_odr hidden noundef ptr @_ZN4llvm25SmallVectorTemplateCommonINS_4SDepEvE5beginEv(ptr noundef nonnull align 8 dereferenceable(16) %0) #0 comdat align 2 {
  %2 = alloca ptr, align 8
  store ptr %0, ptr %2, align 8
  %3 = load ptr, ptr %2, align 8
  %4 = getelementptr inbounds nuw %"class.llvm::SmallVectorBase", ptr %3, i32 0, i32 0
  %5 = load ptr, ptr %4, align 8
  ret ptr %5
}

; Function Attrs: mustprogress nounwind uwtable
define dso_local void @_ZN4llvm20LatencyPriorityQueue13scheduledNodeEPNS_5SUnitE(ptr noundef nonnull align 8 dereferenceable(80) %0, ptr noundef %1) unnamed_addr #0 align 2 {
  %3 = alloca ptr, align 8
  %4 = alloca ptr, align 8
  %5 = alloca ptr, align 8
  %6 = alloca ptr, align 8
  %7 = alloca ptr, align 8
  %8 = alloca ptr, align 8
  store ptr %0, ptr %3, align 8
  store ptr %1, ptr %4, align 8
  %9 = load ptr, ptr %3, align 8
  %10 = load ptr, ptr %4, align 8
  %11 = getelementptr inbounds nuw %"class.llvm::SUnit", ptr %10, i32 0, i32 6
  store ptr %11, ptr %5, align 8
  %12 = load ptr, ptr %5, align 8
  %13 = call noundef ptr @_ZN4llvm25SmallVectorTemplateCommonINS_4SDepEvE5beginEv(ptr noundef nonnull align 8 dereferenceable(16) %12)
  store ptr %13, ptr %6, align 8
  %14 = load ptr, ptr %5, align 8
  %15 = call noundef ptr @_ZN4llvm25SmallVectorTemplateCommonINS_4SDepEvE3endEv(ptr noundef nonnull align 8 dereferenceable(16) %14)
  store ptr %15, ptr %7, align 8
  br label %16

16:                                               ; preds = %24, %2
  %17 = load ptr, ptr %6, align 8
  %18 = load ptr, ptr %7, align 8
  %19 = icmp ne ptr %17, %18
  br i1 %19, label %20, label %27

20:                                               ; preds = %16
  %21 = load ptr, ptr %6, align 8
  store ptr %21, ptr %8, align 8
  %22 = load ptr, ptr %8, align 8
  %23 = call noundef ptr @_ZNK4llvm4SDep8getSUnitEv(ptr noundef nonnull align 8 dereferenceable(16) %22)
  call void @_ZN4llvm20LatencyPriorityQueue32AdjustPriorityOfUnscheduledPredsEPNS_5SUnitE(ptr noundef nonnull align 8 dereferenceable(80) %9, ptr noundef %23)
  br label %24

24:                                               ; preds = %20
  %25 = load ptr, ptr %6, align 8
  %26 = getelementptr inbounds %"class.llvm::SDep", ptr %25, i32 1
  store ptr %26, ptr %6, align 8
  br label %16

27:                                               ; preds = %16
  ret void
}