; Function Attrs: mustprogress nounwind uwtable
define dso_local void @_ZN4llvm20LatencyPriorityQueue13scheduledNodeEPNS_5SUnitE(ptr noundef nonnull align 8 dereferenceable(80) %0, ptr noundef %1) unnamed_addr #0 align 2 {
  %3 = getelementptr inbounds nuw i8, ptr %1, i64 120
  %4 = load ptr, ptr %3, align 8
  %5 = tail call noundef i64 @_ZNK4llvm15SmallVectorBaseIjE4sizeEv(ptr noundef nonnull align 8 dereferenceable(16) %3) #8
  %6 = getelementptr inbounds %"class.llvm::SDep", ptr %4, i64 %5
  %.not9 = icmp eq i64 %5, 0
  br i1 %.not9, label %._crit_edge, label %.lr.ph

.lr.ph:                                           ; preds = %2, %_ZN4llvm20LatencyPriorityQueue32AdjustPriorityOfUnscheduledPredsEPNS_5SUnitE.exit
  %.010 = phi ptr [ %36, %_ZN4llvm20LatencyPriorityQueue32AdjustPriorityOfUnscheduledPredsEPNS_5SUnitE.exit ], [ %4, %2 ]
  %.0.copyload.i.i.i.i = load i64, ptr %.010, align 8
  %7 = and i64 %.0.copyload.i.i.i.i, -8
  %8 = inttoptr i64 %7 to ptr
  %9 = getelementptr inbounds nuw i8, ptr %8, i64 248
  %10 = load i16, ptr %9, align 8
  %11 = and i16 %10, 512
  %.not.i = icmp eq i16 %11, 0
  br i1 %.not.i, label %12, label %_ZN4llvm20LatencyPriorityQueue32AdjustPriorityOfUnscheduledPredsEPNS_5SUnitE.exit

12:                                               ; preds = %.lr.ph
  %13 = getelementptr inbounds nuw i8, ptr %8, i64 40
  %14 = load ptr, ptr %13, align 8
  %15 = tail call noundef i64 @_ZNK4llvm15SmallVectorBaseIjE4sizeEv(ptr noundef nonnull align 8 dereferenceable(16) %13) #8
  %16 = getelementptr inbounds %"class.llvm::SDep", ptr %14, i64 %15
  %.not20.i.i = icmp eq i64 %15, 0
  br i1 %.not20.i.i, label %_ZN4llvm20LatencyPriorityQueue32AdjustPriorityOfUnscheduledPredsEPNS_5SUnitE.exit, label %.lr.ph.i.i

.lr.ph.i.i:                                       ; preds = %12, %23
  %.01522.i.i = phi ptr [ %.1.i.i, %23 ], [ null, %12 ]
  %.01621.i.i = phi ptr [ %24, %23 ], [ %14, %12 ]
  %.0.copyload.i.i.i.i.i.i = load i64, ptr %.01621.i.i, align 8
  %17 = and i64 %.0.copyload.i.i.i.i.i.i, -8
  %18 = inttoptr i64 %17 to ptr
  %19 = getelementptr inbounds nuw i8, ptr %18, i64 248
  %20 = load i16, ptr %19, align 8
  %21 = and i16 %20, 1024
  %.not17.i.i = icmp eq i16 %21, 0
  br i1 %.not17.i.i, label %22, label %23

22:                                               ; preds = %.lr.ph.i.i
  %.not18.i.i = icmp eq ptr %.01522.i.i, null
  %.not19.i.i = icmp eq ptr %.01522.i.i, %18
  %or.cond.i.i = or i1 %.not18.i.i, %.not19.i.i
  br i1 %or.cond.i.i, label %23, label %_ZN4llvm20LatencyPriorityQueue32AdjustPriorityOfUnscheduledPredsEPNS_5SUnitE.exit

23:                                               ; preds = %22, %.lr.ph.i.i
  %.1.i.i = phi ptr [ %.01522.i.i, %.lr.ph.i.i ], [ %18, %22 ]
  %24 = getelementptr inbounds i8, ptr %.01621.i.i, i64 16
  %.not.i.i = icmp eq ptr %24, %16
  br i1 %.not.i.i, label %_ZN4llvm20LatencyPriorityQueue24getSingleUnscheduledPredEPNS_5SUnitE.exit.i, label %.lr.ph.i.i

_ZN4llvm20LatencyPriorityQueue24getSingleUnscheduledPredEPNS_5SUnitE.exit.i: ; preds = %23
  %.not7.i = icmp eq ptr %.1.i.i, null
  br i1 %.not7.i, label %_ZN4llvm20LatencyPriorityQueue32AdjustPriorityOfUnscheduledPredsEPNS_5SUnitE.exit, label %25

25:                                               ; preds = %_ZN4llvm20LatencyPriorityQueue24getSingleUnscheduledPredEPNS_5SUnitE.exit.i
  %26 = getelementptr inbounds nuw i8, ptr %.1.i.i, i64 248
  %27 = load i16, ptr %26, align 8
  %28 = and i16 %27, 512
  %.not8.i = icmp eq i16 %28, 0
  br i1 %.not8.i, label %_ZN4llvm20LatencyPriorityQueue32AdjustPriorityOfUnscheduledPredsEPNS_5SUnitE.exit, label %29

29:                                               ; preds = %25
  %30 = load ptr, ptr %0, align 8
  %31 = getelementptr inbounds i8, ptr %30, i64 104
  %32 = load ptr, ptr %31, align 8
  tail call void %32(ptr noundef nonnull align 8 dereferenceable(80) %0, ptr noundef nonnull %.1.i.i) #8
  %33 = load ptr, ptr %0, align 8
  %34 = getelementptr inbounds i8, ptr %33, i64 88
  %35 = load ptr, ptr %34, align 8
  tail call void %35(ptr noundef nonnull align 8 dereferenceable(80) %0, ptr noundef nonnull %.1.i.i) #8
  br label %_ZN4llvm20LatencyPriorityQueue32AdjustPriorityOfUnscheduledPredsEPNS_5SUnitE.exit

_ZN4llvm20LatencyPriorityQueue32AdjustPriorityOfUnscheduledPredsEPNS_5SUnitE.exit: ; preds = %22, %.lr.ph, %12, %_ZN4llvm20LatencyPriorityQueue24getSingleUnscheduledPredEPNS_5SUnitE.exit.i, %25, %29
  %36 = getelementptr inbounds i8, ptr %.010, i64 16
  %.not = icmp eq ptr %36, %6
  br i1 %.not, label %._crit_edge, label %.lr.ph

._crit_edge:                                      ; preds = %_ZN4llvm20LatencyPriorityQueue32AdjustPriorityOfUnscheduledPredsEPNS_5SUnitE.exit, %2
  ret void
}